(lp1
(lp2
I54
aI0
aI0
aI0
aa(lp3
I34
aI0
aI0
aI0
aa(lp4
I49
aI0
aI0
aI2
aa(lp5
I24
aI0
aI0
aI2
aa(lp6
I23
aI0
aI0
aI0
aa(lp7
I34
aI0
aI0
aI0
aa(lp8
I56
aI0
aI0
aI2
aa(lp9
I26
aI0
aI0
aI0
aa(lp10
I49
aI0
aI0
aI2
aa(lp11
I47
aI0
aI0
aI0
aa.